; Function Attrs: mustprogress uwtable
define hidden void @_ZN3opt10opt_solver23current_objective_valueEj(ptr dead_on_unwind noalias writable sret(%class.inf_eps_rational) align 8 %0, ptr noundef nonnull align 8 dereferenceable(1042) %1, i32 noundef %2) local_unnamed_addr #4 align 2 {
  %4 = getelementptr inbounds nuw i8, ptr %1, i64 976
  %5 = load ptr, ptr %4, align 8, !tbaa !287
  %6 = zext i32 %2 to i64
  %7 = getelementptr inbounds nuw i32, ptr %5, i64 %6
  %8 = load i32, ptr %7, align 4, !tbaa !263
  %9 = tail call noundef nonnull align 8 dereferenceable(8) ptr @_ZN3opt10opt_solver13get_optimizerEv(ptr noundef nonnull align 8 dereferenceable(1042) %1)
  %10 = load ptr, ptr %9, align 8, !tbaa !3
  %11 = getelementptr inbounds nuw i8, ptr %10, i64 16
  %12 = load ptr, ptr %11, align 8
  tail call void %12(ptr dead_on_unwind writable sret(%class.inf_eps_rational) align 8 %0, ptr noundef nonnull align 8 dereferenceable(8) %9, i32 noundef %8)
  ret void
}